(lp0
S'puzzle'
p1
aI1
a(I2
I5
tp2
a(lp3
(S'star'
p4
I6
(I153
I86
I98
tp5
tp6
aa(lp7
(lp8
S'arrow'
p9
aS'blue'
p10
aI1
aa(lp11
S'warp'
p12
aNaI4
aaa(lp13
(lp14
(I1
I5
tp15
ag10
aaa(lp16
(lp17
(I2
I5
tp18
aS'north'
p19
aaa(lp20
a(lp21
a(lp22
(lp23
(I1
I3
tp24
aaa(lp25
a(lp26
(lp27
S'delux'
p28
aI1
ag10
aI6
aI1
aI25
aI0
aaaNa.