(lp0
S'puzzle'
p1
aI2
a(I4
I3
tp2
a(lp3
(S'star'
p4
I6
(I153
I86
I98
tp5
tp6
aa(lp7
(lp8
S'arrow'
p9
aS'red'
p10
aI1
aa(lp11
S'warp'
p12
aNaI2
aaa(lp13
(lp14
(I2
I1
tp15
ag10
aa(lp16
(I1
I2
tp17
aS'green'
p18
aaa(lp19
(lp20
(I4
I3
tp21
aS'north'
p22
aaa(lp23
a(lp24
a(lp25
(lp26
(I3
I2
tp27
aa(lp28
(I2
I2
tp29
aa(lp30
(I3
I1
tp31
aaa(lp32
a(lp33
(lp34
S'delux'
p35
aI1
ag18
aI6
aI1
aI25
aI0
aa(lp36
g35
aI1
ag10
aI6
aI1
aI50
aI0
aaaNa.