(lp0
S'puzzle'
p1
aI4
a(I3
I5
tp2
a(lp3
(S'star'
p4
I6
(I153
I86
I98
tp5
tp6
aa(lp7
(lp8
S'arrow'
p9
aNaI2
aaa(lp10
(lp11
(I1
I5
tp12
aNaaa(lp13
(lp14
(I1
I1
tp15
aS'east'
p16
aaa(lp17
a(lp18
a(lp19
(lp20
(I2
I4
tp21
aaa(lp22
a(lp23
(lp24
S'delux'
p25
aI1
aS'green'
p26
aI6
aI1
aI25
aI0
aa(lp27
g25
aI1
aS'blue'
p28
aI6
aI1
aI50
aI0
aa(lp29
g25
aI1
aS'red'
p30
aI6
aI1
aI75
aI0
aa(lp31
g25
aI1
aS'yellow'
p32
aI6
aI1
aI100
aI0
aaaNa.