(lp0
S'puzzle'
p1
aI4
a(I6
I5
tp2
a(lp3
(S'star'
p4
I6
(I153
I86
I98
tp5
tp6
aa(lp7
(lp8
S'arrow'
p9
aS'green'
p10
aI2
aa(lp11
g9
aS'red'
p12
aI3
aa(lp13
g9
aS'yellow'
p14
aI3
aaa(lp15
(lp16
(I1
I4
tp17
ag12
aa(lp18
(I4
I1
tp19
ag10
aa(lp20
(I5
I2
tp21
aS'blue'
p22
aa(lp23
(I1
I2
tp24
ag14
aaa(lp25
(lp26
(I2
I3
tp27
aS'east'
p28
aaa(lp29
(lp30
(I3
I5
tp31
ag10
aS'north'
p32
aa(lp33
(I4
I5
tp34
ag10
aS'west'
p35
aaa(lp36
(lp37
(I5
I4
tp38
ag14
ag28
aS'hidden'
p39
aI2
aa(lp40
(I5
I3
tp41
ag14
ag39
aS'south'
p42
aI1
aa(lp43
g41
ag22
ag32
ag39
aI1
aa(lp44
(I2
I2
tp45
ag14
ag28
ag39
aI2
aa(lp46
(I6
I1
tp47
ag14
ag39
ag42
aI2
aa(lp48
g47
ag14
ag35
ag39
aI2
aa(lp49
(I6
I4
tp50
ag14
ag39
ag35
aI2
aa(lp51
g50
ag14
ag32
ag39
aI2
aaa(lp52
(lp53
(I2
I4
tp54
aa(lp55
(I1
I1
tp56
aa(lp57
(I4
I2
tp58
aa(lp59
(I1
I3
tp60
aaa(lp61
(lp62
(I5
I1
tp63
aI2
aa(lp64
(I4
I4
tp65
aI1
aaa(lp66
(lp67
S'delux'
p68
aI1
ag22
aI6
aI1
aI25
aI0
aa(lp69
g68
aI1
ag10
aI6
aI1
aI50
aI0
aa(lp70
g68
aI1
ag12
aI6
aI1
aI75
aI0
aa(lp71
g68
aI1
ag14
aI6
aI1
aI100
aI0
aaaNa.