(lp0
S'puzzle'
p1
aI8
a(I12
I6
tp2
a(lp3
(S'star'
p4
I6
(I153
I86
I98
tp5
tp6
aa(lp7
(lp8
S'arrow'
p9
aNaI2
aa(lp10
g9
aS'green'
p11
aI6
aa(lp12
g9
aS'blue'
p13
aI5
aa(lp14
g9
aS'red'
p15
aI4
aa(lp16
g9
aS'yellow'
p17
aI2
aaa(lp18
(lp19
(I1
I3
tp20
ag13
aa(lp21
(I1
I5
tp22
ag11
aa(lp23
(I3
I4
tp24
ag17
aa(lp25
(I3
I2
tp26
ag15
aaa(lp27
(lp28
(I12
I4
tp29
aS'west'
p30
aa(lp31
(I11
I3
tp32
ag30
aaa(lp33
(lp34
(I11
I5
tp35
ag11
ag30
aa(lp36
(I11
I4
tp37
ag11
aS'south'
p38
aa(lp39
(I9
I4
tp40
ag11
aS'east'
p41
aa(lp42
(I9
I5
tp43
ag11
ag38
aa(lp44
(I4
I2
tp45
aNag30
aaa(lp46
(lp47
(I5
I5
tp48
ag11
aS'hidden'
p49
ag38
aI1
aa(lp50
g48
ag17
aS'north'
p51
ag49
aI1
aaa(lp52
(lp53
(I9
I1
tp54
aa(lp55
(I6
I6
tp56
aa(lp57
(I4
I5
tp58
aa(lp59
(I6
I4
tp60
aa(lp61
(I11
I2
tp62
aa(lp63
(I12
I5
tp64
aa(lp65
(I2
I6
tp66
aa(lp67
(I3
I1
tp68
aa(lp69
(I3
I3
tp70
aa(lp71
(I8
I3
tp72
aa(lp73
(I8
I5
tp74
aa(lp75
(I5
I2
tp76
aa(lp77
(I10
I6
tp78
aa(lp79
(I1
I4
tp80
aaa(lp81
(lp82
(I4
I4
tp83
aI1
aaa(lp84
(lp85
S'delux'
p86
aI1
ag15
aI6
aI1
aI25
aI0
aa(lp87
g86
aI1
ag15
aI6
aI1
aI50
aI0
aa(lp88
g86
aI1
ag17
aI6
aI1
aI75
aI0
aa(lp89
g86
aI1
ag17
aI6
aI1
aI100
aI0
aa(lp90
g86
aI1
ag11
aI6
aI2
aI25
aI0
aa(lp91
g86
aI1
ag11
aI6
aI2
aI50
aI0
aa(lp92
g86
aI1
ag13
aI6
aI2
aI75
aI0
aa(lp93
g86
aI1
ag13
aI6
aI2
aI100
aI0
aaaNa.