(lp0
S'puzzle'
p1
aI4
a(I6
I6
tp2
a(lp3
(S'star'
p4
I6
(I153
I86
I98
tp5
tp6
aa(lp7
(lp8
S'arrow'
p9
aNaI2
aa(lp10
g9
aS'green'
p11
aI2
aa(lp12
g9
aS'blue'
p13
aI1
aa(lp14
g9
aS'red'
p15
aI1
aa(lp16
g9
aS'yellow'
p17
aI2
aaa(lp18
(lp19
(I4
I3
tp20
ag13
aa(lp21
(I3
I4
tp22
ag15
aa(lp23
(I4
I4
tp24
ag17
aa(lp25
(I3
I3
tp26
ag11
aaa(lp27
(lp28
(I2
I6
tp29
aS'east'
p30
aa(lp31
(I5
I1
tp32
aS'west'
p33
aaa(lp34
(lp35
(I1
I6
tp36
aNag30
aa(lp37
(I3
I1
tp38
aNag33
aa(lp39
(I4
I6
tp40
aNag30
aa(lp41
(I6
I1
tp42
aNag33
aaa(lp43
(lp44
(I3
I5
tp45
aNaS'hidden'
p46
aS'north'
p47
aI2
aa(lp48
g45
aNag30
ag46
aI2
aa(lp49
(I4
I2
tp50
aNag46
aS'south'
p51
aI1
aa(lp52
g50
aNag33
ag46
aI1
aaa(lp53
(lp54
(I5
I3
tp55
aa(lp56
(I2
I5
tp57
aa(lp58
(I2
I2
tp59
aa(lp60
(I5
I5
tp61
aa(lp62
(I2
I4
tp63
aa(lp64
(I5
I2
tp65
aaa(lp66
(lp67
(I6
I5
tp68
aI1
aa(lp69
(I1
I2
tp70
aI2
aaa(lp71
(lp72
S'delux'
p73
aI1
ag11
aI6
aI1
aI25
aI0
aa(lp74
g73
aI1
ag13
aI6
aI1
aI50
aI0
aa(lp75
g73
aI1
ag17
aI6
aI2
aI25
aI0
aa(lp76
g73
aI1
ag15
aI6
aI2
aI50
aI0
aaaNa.