(lp0
S'puzzle'
p1
aI2
a(I10
I8
tp2
a(lp3
(S'star'
p4
I6
(I153
I86
I98
tp5
tp6
aa(lp7
(lp8
S'arrow'
p9
aNaI3
aa(lp10
g9
aS'red'
p11
aI8
aa(lp12
g9
aS'yellow'
p13
aI8
aaa(lp14
(lp15
(I7
I5
tp16
aNaaa(lp17
(lp18
(I10
I1
tp19
aS'west'
p20
aaa(lp21
(lp22
(I10
I2
tp23
ag13
ag20
aa(lp24
(I2
I1
tp25
ag11
aS'east'
p26
aa(lp27
(I2
I5
tp28
aNaS'south'
p29
aa(lp30
(I5
I5
tp31
aNag20
aa(lp32
(I5
I8
tp33
ag13
aS'north'
p34
aa(lp35
(I2
I7
tp36
aNag20
aa(lp37
(I4
I3
tp38
ag11
ag34
aa(lp39
(I3
I4
tp40
aNag29
aa(lp41
(I1
I4
tp42
aNag26
aaa(lp43
(lp44
(I1
I7
tp45
aNaS'hidden'
p46
ag29
aI3
aa(lp47
g45
aNag34
ag46
aI3
aa(lp48
(I7
I4
tp49
aNag46
ag20
aI1
aa(lp50
g49
aNag34
ag46
aI1
aa(lp51
(I5
I3
tp52
ag11
ag20
ag46
aI2
aa(lp53
(I6
I7
tp54
aNag46
ag29
aI6
aa(lp55
g54
aNag34
ag46
aI6
aa(lp56
(I5
I4
tp57
aNag34
ag46
aI2
aa(lp58
(I9
I7
tp59
ag11
ag20
ag46
aI6
aa(lp60
(I4
I8
tp61
aNag46
ag26
aI4
aa(lp62
g61
aNag29
ag46
aI4
aaa(lp63
(lp64
(I6
I5
tp65
aa(lp66
(I8
I6
tp67
aa(lp68
(I7
I6
tp69
aa(lp70
(I1
I1
tp71
aa(lp72
(I2
I3
tp73
aa(lp74
(I10
I4
tp75
aa(lp76
(I6
I3
tp77
aa(lp78
(I7
I1
tp79
aa(lp80
(I4
I7
tp81
aa(lp82
(I1
I2
tp83
aa(lp84
(I8
I4
tp85
aa(lp86
(I6
I2
tp87
aa(lp88
(I4
I4
tp89
aa(lp90
(I5
I6
tp91
aa(lp92
(I3
I3
tp93
aa(lp94
(I9
I4
tp95
aaa(lp96
(lp97
(I3
I1
tp98
aI2
aa(lp99
(I9
I3
tp100
aI1
aa(lp101
(I2
I4
tp102
aI3
aa(lp103
(I3
I6
tp104
aI4
aa(lp105
(I7
I7
tp106
aI6
aaa(lp107
(lp108
S'delux'
p109
aI1
ag11
aI6
aI1
aI25
aI0
aa(lp110
g109
aI1
ag13
aI6
aI1
aI50
aI0
aaaNa.