(lp0
S'puzzle'
p1
aI3
a(I6
I6
tp2
a(lp3
(S'star'
p4
I6
(I153
I86
I98
tp5
tp6
aa(lp7
(lp8
S'arrow'
p9
aNaI2
aa(lp10
g9
aS'green'
p11
aI1
aa(lp12
g9
aS'blue'
p13
aI1
aa(lp14
g9
aS'red'
p15
aI2
aa(lp16
S'warp'
p17
aNaI2
aaa(lp18
(lp19
(I1
I1
tp20
ag15
aa(lp21
(I2
I2
tp22
ag11
aa(lp23
(I3
I3
tp24
ag13
aaa(lp25
(lp26
(I1
I4
tp27
aS'south'
p28
aaa(lp29
(lp30
(I1
I6
tp31
aNaS'east'
p32
aa(lp33
(I3
I6
tp34
aNag32
aa(lp35
(I5
I3
tp36
ag15
ag28
aa(lp37
(I5
I1
tp38
ag15
ag28
aaa(lp39
(lp40
(I2
I5
tp41
ag13
aS'hidden'
p42
ag32
aI1
aa(lp43
g41
ag13
ag28
ag42
aI1
aa(lp44
(I5
I4
tp45
aNag42
aS'west'
p46
aI1
aa(lp47
g45
aNag32
ag42
aI1
aa(lp48
(I4
I4
tp49
aNag42
ag46
aI1
aa(lp50
g49
aNag28
ag42
aI1
aa(lp51
(I6
I1
tp52
aNag42
ag46
aI2
aa(lp53
(I4
I5
tp54
aNag42
aS'north'
p55
aI1
aaa(lp56
(lp57
(I2
I4
tp58
aa(lp59
(I5
I5
tp60
aa(lp61
(I6
I6
tp62
aa(lp63
(I3
I1
tp64
aa(lp65
(I1
I3
tp66
aa(lp67
(I4
I2
tp68
aaa(lp69
(lp70
(I3
I5
tp71
aI2
aa(lp72
(I6
I3
tp73
aI1
aaa(lp74
(lp75
S'delux'
p76
aI1
ag15
aI6
aI1
aI25
aI0
aa(lp77
g76
aI1
ag11
aI6
aI1
aI50
aI0
aa(lp78
g76
aI1
ag13
aI6
aI1
aI75
aI0
aaaNa.