(lp0
S'puzzle'
p1
aI2
a(I6
I5
tp2
a(lp3
(S'star'
p4
I6
(I153
I86
I98
tp5
tp6
aa(lp7
(lp8
S'arrow'
p9
aNaI2
aa(lp10
g9
aS'green'
p11
aI5
aaa(lp12
(lp13
(I6
I1
tp14
ag11
aa(lp15
(I1
I2
tp16
aS'blue'
p17
aaa(lp18
(lp19
(I2
I3
tp20
aS'south'
p21
aaa(lp22
(lp23
(I2
I4
tp24
aNaS'east'
p25
aa(lp26
(I4
I5
tp27
ag17
aS'west'
p28
aaa(lp29
(lp30
(I3
I2
tp31
ag11
aS'hidden'
p32
ag25
aI2
aa(lp33
(I4
I3
tp34
ag17
ag32
ag21
aI1
aa(lp35
(I1
I4
tp36
ag11
ag32
ag25
aI2
aa(lp37
g36
aNag25
ag32
aI2
aa(lp38
(I3
I1
tp39
ag17
ag32
ag21
aI1
aa(lp40
g39
aNag28
ag32
aI1
aa(lp41
(I6
I2
tp42
ag11
ag32
aS'north'
p43
aI1
aa(lp44
g42
aNag28
ag32
aI1
aa(lp45
(I1
I3
tp46
aNag28
ag32
aI3
aa(lp47
(I3
I3
tp48
ag17
ag32
ag25
aI1
aaa(lp49
(lp50
(I5
I1
tp51
aa(lp52
(I5
I3
tp53
aa(lp54
(I6
I3
tp55
aa(lp56
(I2
I2
tp57
aaa(lp58
(lp59
(I5
I4
tp60
aI2
aa(lp61
(I2
I5
tp62
aI3
aa(lp63
(I2
I1
tp64
aI1
aaa(lp65
(lp66
S'delux'
p67
aI1
ag11
aI6
aI1
aI25
aI0
aa(lp68
g67
aI1
ag17
aI6
aI1
aI50
aI0
aaaNa.