(lp0
S'puzzle'
p1
aI8
a(I7
I7
tp2
a(lp3
(S'star'
p4
I6
(I153
I86
I98
tp5
tp6
aa(lp7
(lp8
S'arrow'
p9
aS'green'
p10
aI3
aa(lp11
g9
aS'blue'
p12
aI3
aa(lp13
g9
aS'red'
p14
aI2
aa(lp15
g9
aS'yellow'
p16
aI1
aa(lp17
S'warp'
p18
aNaI4
aaa(lp19
(lp20
(I2
I7
tp21
ag12
aa(lp22
(I1
I7
tp23
ag14
aa(lp24
(I7
I3
tp25
ag16
aa(lp26
(I6
I6
tp27
ag10
aaa(lp28
(lp29
(I4
I6
tp30
aS'north'
p31
aa(lp32
(I3
I1
tp33
aS'east'
p34
aaa(lp35
(lp36
(I1
I2
tp37
ag10
ag31
aa(lp38
(I5
I5
tp39
ag12
aS'west'
p40
aa(lp41
(I7
I2
tp42
aNaS'south'
p43
aa(lp44
(I1
I5
tp45
ag14
ag43
aa(lp46
(I3
I5
tp47
ag12
ag43
aa(lp48
(I2
I3
tp49
ag12
ag31
aa(lp50
(I2
I1
tp51
ag12
ag40
aa(lp52
(I1
I3
tp53
ag12
ag34
aaa(lp54
(lp55
(I3
I7
tp56
ag12
aS'hidden'
p57
ag40
aI3
aa(lp58
g56
aNag43
ag57
aI3
aa(lp59
(I7
I4
tp60
aNag57
ag31
aI2
aa(lp61
g60
aNag43
ag57
aI2
aa(lp62
(I7
I5
tp63
aNag57
ag31
aI2
aa(lp64
g63
aNag43
ag57
aI2
aa(lp65
(I4
I4
tp66
aNag57
ag40
aI1
aa(lp67
g66
aNag34
ag57
aI1
aa(lp68
(I1
I4
tp69
ag12
ag57
ag31
aI1
aa(lp70
g69
ag12
ag34
ag57
aI1
aaa(lp71
(lp72
(I5
I6
tp73
aa(lp74
(I3
I3
tp75
aa(lp76
(I6
I3
tp77
aa(lp78
(I2
I5
tp79
aa(lp80
(I2
I6
tp81
aaa(lp82
(lp83
(I6
I7
tp84
aI2
aa(lp85
(I2
I4
tp86
aI3
aa(lp87
(I5
I7
tp88
aI1
aaa(lp89
(lp90
S'delux'
p91
aI1
ag10
aI6
aI1
aI25
aI0
aa(lp92
g91
aI1
ag12
aI6
aI1
aI50
aI0
aa(lp93
g91
aI1
ag14
aI6
aI1
aI75
aI0
aa(lp94
g91
aI1
ag16
aI6
aI1
aI100
aI0
aa(lp95
g91
aI1
ag10
aI6
aI2
aI25
aI0
aa(lp96
g91
aI1
ag12
aI6
aI2
aI50
aI0
aa(lp97
g91
aI1
ag14
aI6
aI2
aI75
aI0
aa(lp98
g91
aI1
ag16
aI6
aI2
aI100
aI0
aaaNa.