(lp0
S'puzzle'
p1
aI4
a(I8
I5
tp2
a(lp3
(S'star'
p4
I6
(I153
I86
I98
tp5
tp6
aa(lp7
(lp8
S'arrow'
p9
aS'green'
p10
aI3
aa(lp11
g9
aS'blue'
p12
aI1
aa(lp13
g9
aS'red'
p14
aI3
aa(lp15
S'warp'
p16
aNaI4
aaa(lp17
(lp18
(I7
I1
tp19
ag14
aa(lp20
(I5
I1
tp21
ag12
aa(lp22
(I2
I5
tp23
ag10
aa(lp24
(I4
I2
tp25
aS'yellow'
p26
aaa(lp27
(lp28
(I8
I1
tp29
aS'south'
p30
aa(lp31
(I1
I5
tp32
aS'north'
p33
aaa(lp34
(lp35
(I1
I1
tp36
ag26
aS'east'
p37
aa(lp38
(I6
I1
tp39
ag14
ag37
aa(lp40
(I4
I4
tp41
ag26
ag33
aa(lp42
(I2
I3
tp43
ag10
ag37
aa(lp44
(I1
I2
tp45
ag12
ag37
aaa(lp46
(lp47
(I5
I2
tp48
aNag30
aS'hidden'
p49
aI1
aa(lp50
(I2
I2
tp51
ag12
aS'west'
p52
ag49
aI2
aa(lp53
(I7
I4
tp54
ag14
ag49
ag33
aI2
aa(lp55
(I2
I4
tp56
ag10
ag49
ag30
aI1
aa(lp57
g56
ag10
ag33
ag49
aI1
aa(lp58
(I8
I5
tp59
ag14
ag49
ag33
aI3
aa(lp60
(I2
I1
tp61
ag26
ag52
ag49
aI3
aaa(lp62
(lp63
(I3
I5
tp64
aa(lp65
(I4
I5
tp66
aaa(lp67
(lp68
(I6
I3
tp69
aI1
aa(lp70
(I6
I4
tp71
aI3
aa(lp72
(I7
I5
tp73
aI2
aaa(lp74
(lp75
S'delux'
p76
aI1
ag14
aI6
aI1
aI25
aI0
aa(lp77
g76
aI1
ag10
aI6
aI2
aI25
aI0
aa(lp78
g76
aI1
ag12
aI6
aI2
aI50
aI0
aa(lp79
g76
aI1
ag26
aI6
aI2
aI75
aI0
aaaNa.