(lp0
S'puzzle'
p1
aI16
a(I12
I10
tp2
a(lp3
(S'star'
p4
I6
(I153
I86
I98
tp5
tp6
aa(lp7
(lp8
S'arrow'
p9
aS'green'
p10
aI4
aa(lp11
g9
aS'blue'
p12
aI4
aa(lp13
g9
aS'red'
p14
aI5
aa(lp15
g9
aS'yellow'
p16
aI1
aa(lp17
S'warp'
p18
aNaI10
aaa(lp19
(lp20
(I12
I1
tp21
aNaaa(lp22
(lp23
(I2
I2
tp24
aS'east'
p25
aa(lp26
(I1
I9
tp27
ag25
aa(lp28
(I6
I10
tp29
aS'west'
p30
aa(lp31
(I11
I8
tp32
ag30
aaa(lp33
(lp34
(I11
I6
tp35
aNag30
aa(lp36
(I10
I3
tp37
aNaS'north'
p38
aa(lp39
(I7
I6
tp40
ag12
aS'south'
p41
aa(lp42
(I7
I8
tp43
aNag38
aa(lp44
(I1
I1
tp45
aNag25
aa(lp46
(I5
I1
tp47
aNag41
aa(lp48
(I2
I7
tp49
aNag38
aa(lp50
(I5
I7
tp51
ag12
ag38
aa(lp52
(I11
I4
tp53
aNag38
aa(lp54
(I8
I5
tp55
ag14
ag38
aa(lp56
(I7
I1
tp57
aNag30
aa(lp58
(I10
I1
tp59
aNag30
aa(lp60
(I10
I8
tp61
aNag30
aa(lp62
(I9
I3
tp63
ag10
ag41
aa(lp64
(I2
I9
tp65
aNag25
aa(lp66
(I11
I3
tp67
aNag30
aa(lp68
(I11
I7
tp69
aNag38
aa(lp70
(I5
I10
tp71
ag14
ag30
aa(lp72
(I11
I5
tp73
aNag38
aa(lp74
(I6
I5
tp75
aNag30
aa(lp76
(I5
I9
tp77
ag14
ag41
aa(lp78
(I5
I6
tp79
aNag41
aa(lp80
(I10
I10
tp81
aNag25
aa(lp82
(I9
I1
tp83
aNag41
aaa(lp84
(lp85
(I1
I4
tp86
ag10
aS'hidden'
p87
ag38
aI2
aa(lp88
(I12
I6
tp89
aNag87
ag38
aI5
aa(lp90
g89
aNag41
ag87
aI5
aa(lp91
(I11
I10
tp92
aNag87
ag25
aI10
aa(lp93
g92
aNag30
ag87
aI10
aa(lp94
(I12
I4
tp95
aNag87
ag38
aI3
aa(lp96
g95
aNag41
ag87
aI3
aa(lp97
(I12
I3
tp98
aNag87
ag38
aI2
aa(lp99
g98
aNag41
ag87
aI2
aa(lp100
(I12
I10
tp101
aNag87
ag38
aI9
aa(lp102
g101
aNag30
ag87
aI9
aa(lp103
(I8
I4
tp104
ag14
ag41
ag87
aI8
aa(lp105
(I12
I7
tp106
aNag87
ag38
aI6
aa(lp107
g106
aNag41
ag87
aI6
aa(lp108
(I8
I7
tp109
ag14
ag87
ag25
aI6
aa(lp110
(I12
I5
tp111
aNag87
ag38
aI4
aa(lp112
g111
aNag41
ag87
aI4
aa(lp113
(I10
I4
tp114
ag12
ag87
ag30
aI4
aa(lp115
(I1
I3
tp116
aNag87
ag38
aI2
aa(lp117
g116
ag10
ag41
ag87
aI2
aa(lp118
(I12
I9
tp119
aNag87
ag38
aI8
aa(lp120
g119
aNag41
ag87
aI8
aa(lp121
(I7
I4
tp122
ag10
ag87
ag25
aI5
aa(lp123
(I2
I4
tp124
ag10
ag25
ag87
aI2
aa(lp125
(I5
I3
tp126
aNag87
ag25
aI5
aa(lp127
g126
ag10
ag30
ag87
aI5
aa(lp128
(I3
I9
tp129
aNag30
ag87
aI10
aa(lp130
(I4
I3
tp131
ag10
ag87
ag41
aI1
aa(lp132
(I9
I7
tp133
ag14
ag38
ag87
aI7
aa(lp134
(I3
I4
tp135
ag10
ag87
ag30
aI3
aa(lp136
g135
ag10
ag41
ag87
aI3
aa(lp137
(I8
I2
tp138
ag14
ag87
ag41
aI9
aa(lp139
g138
ag14
ag30
ag87
aI9
aa(lp140
(I8
I3
tp141
ag14
ag87
ag25
aI9
aa(lp142
(I7
I2
tp143
ag14
ag87
ag25
aI9
aa(lp144
g143
ag14
ag30
ag87
aI9
aa(lp145
(I12
I8
tp146
aNag87
ag38
aI7
aa(lp147
g146
aNag41
ag87
aI7
aa(lp148
(I12
I2
tp149
aNag87
ag38
aI1
aa(lp150
g149
aNag41
ag87
aI1
aaa(lp151
(lp152
(I6
I6
tp153
aa(lp154
(I11
I2
tp155
aa(lp156
(I11
I1
tp157
aa(lp158
(I4
I7
tp159
aa(lp160
(I1
I7
tp161
aa(lp162
(I6
I4
tp163
aa(lp164
(I4
I2
tp165
aa(lp166
(I3
I7
tp167
aa(lp168
(I6
I9
tp169
aa(lp170
(I11
I9
tp171
aa(lp172
(I7
I9
tp173
aa(lp174
(I9
I9
tp175
aa(lp176
(I8
I9
tp177
aa(lp178
(I6
I7
tp179
aa(lp180
(I9
I10
tp181
aa(lp182
(I8
I10
tp183
aa(lp184
(I8
I1
tp185
aa(lp186
(I4
I6
tp187
aaa(lp188
(lp189
(I6
I1
tp190
aI5
aa(lp191
(I1
I5
tp192
aI2
aa(lp193
(I10
I2
tp194
aI8
aa(lp195
(I3
I3
tp196
aI1
aa(lp197
(I2
I8
tp198
aI10
aa(lp199
(I4
I1
tp200
aI4
aa(lp201
(I9
I6
tp202
aI7
aa(lp203
(I6
I8
tp204
aI9
aa(lp205
(I8
I6
tp206
aI6
aa(lp207
(I3
I5
tp208
aI3
aaa(lp209
(lp210
S'delux'
p211
aI1
ag10
aI6
aI1
aI25
aI0
aa(lp212
g211
aI1
ag10
aI6
aI1
aI50
aI0
aa(lp213
g211
aI1
ag10
aI6
aI1
aI75
aI0
aa(lp214
g211
aI1
ag10
aI6
aI1
aI100
aI0
aa(lp215
g211
aI1
ag12
aI6
aI2
aI25
aI0
aa(lp216
g211
aI1
ag12
aI6
aI2
aI50
aI0
aa(lp217
g211
aI1
ag12
aI6
aI2
aI75
aI0
aa(lp218
g211
aI1
ag14
aI6
aI2
aI100
aI0
aa(lp219
g211
aI1
ag16
aI6
aI3
aI25
aI0
aa(lp220
g211
aI1
ag16
aI6
aI3
aI50
aI0
aa(lp221
g211
aI1
ag16
aI6
aI3
aI75
aI0
aa(lp222
g211
aI1
ag16
aI6
aI3
aI100
aI0
aa(lp223
g211
aI1
ag14
aI6
aI4
aI25
aI0
aa(lp224
g211
aI1
ag14
aI6
aI4
aI50
aI0
aa(lp225
g211
aI1
ag14
aI6
aI4
aI75
aI0
aa(lp226
g211
aI1
ag12
aI6
aI4
aI100
aI0
aaaNa.