(lp0
S'puzzle'
p1
aI4
a(I7
I6
tp2
a(lp3
(S'star'
p4
I6
(I153
I86
I98
tp5
tp6
aa(lp7
(lp8
S'arrow'
p9
aNaI1
aa(lp10
g9
aS'green'
p11
aI3
aa(lp12
g9
aS'blue'
p13
aI3
aa(lp14
g9
aS'red'
p15
aI1
aa(lp16
g9
aS'yellow'
p17
aI2
aaa(lp18
(lp19
(I2
I2
tp20
ag17
aa(lp21
(I7
I3
tp22
ag13
aa(lp23
(I1
I5
tp24
ag15
aa(lp25
(I6
I5
tp26
ag11
aaa(lp27
(lp28
(I7
I2
tp29
aS'west'
p30
aaa(lp31
(lp32
(I6
I3
tp33
ag11
aS'north'
p34
aa(lp35
(I3
I6
tp36
ag11
aS'east'
p37
aa(lp38
(I2
I1
tp39
aNag37
aa(lp40
(I5
I3
tp41
ag13
ag37
aa(lp42
(I5
I2
tp43
ag17
ag30
aa(lp44
(I3
I3
tp45
ag15
ag37
aa(lp46
(I3
I4
tp47
ag11
ag37
aaa(lp48
a(lp49
(lp50
(I5
I4
tp51
aa(lp52
(I3
I2
tp53
aa(lp54
(I5
I6
tp55
aa(lp56
(I1
I1
tp57
aa(lp58
(I7
I5
tp59
aa(lp60
(I1
I3
tp61
aa(lp62
(I1
I6
tp63
aa(lp64
(I1
I2
tp65
aa(lp66
(I6
I1
tp67
aa(lp68
(I1
I4
tp69
aaa(lp70
a(lp71
(lp72
S'delux'
p73
aI1
ag11
aI6
aI1
aI25
aI0
aa(lp74
g73
aI1
ag13
aI6
aI1
aI50
aI0
aa(lp75
g73
aI1
ag17
aI6
aI1
aI75
aI0
aa(lp76
g73
aI1
ag15
aI6
aI1
aI100
aI0
aaaNa.